; Function Attrs: nounwind sspstrong uwtable
define internal void @get_string(ptr noundef %obj, ptr noundef %v, ptr noundef %name, ptr noundef readonly captures(none) %opaque, ptr noundef %errp) #0 {
entry:
  %str = alloca ptr, align 8
  %offset.i = getelementptr inbounds nuw i8, ptr %opaque, i64 16
  %0 = load i64, ptr %offset.i, align 8
  %add.ptr.i = getelementptr i8, ptr %obj, i64 %0
  %1 = load ptr, ptr %add.ptr.i, align 8
  %tobool.not = icmp eq ptr %1, null
  br i1 %tobool.not, label %if.then, label %if.else

if.then:                                          ; preds = %entry
  store ptr @.str.30, ptr %str, align 8
  %call1 = call zeroext i1 @visit_type_str(ptr noundef %v, ptr noundef %name, ptr noundef nonnull %str, ptr noundef %errp) #9
  br label %if.end

if.else:                                          ; preds = %entry
  %call2 = tail call zeroext i1 @visit_type_str(ptr noundef %v, ptr noundef %name, ptr noundef nonnull %add.ptr.i, ptr noundef %errp) #9
  br label %if.end

if.end:                                           ; preds = %if.else, %if.then
  ret void
}